; Function Attrs: mustprogress uwtable
define dso_local void @_ZN3net19QuicFixedIPEndPointC2EjNS_18QuicConfigPresenceE(ptr noundef nonnull align 8 dereferenceable(89) %this, i32 noundef %tag, i32 noundef %presence) unnamed_addr #0 align 2 personality ptr @__gxx_personality_v0 {
entry:
  %tag_.i = getelementptr inbounds i8, ptr %this, i64 8
  store i32 %tag, ptr %tag_.i, align 8
  %presence_.i = getelementptr inbounds i8, ptr %this, i64 12
  store i32 %presence, ptr %presence_.i, align 4
  store ptr getelementptr inbounds ({ [6 x ptr] }, ptr @_ZTVN3net19QuicFixedIPEndPointE, i64 0, i32 0, i64 2), ptr %this, align 8
  %send_value_ = getelementptr inbounds i8, ptr %this, i64 16
  tail call void @_ZN3net10IPEndPointC1Ev(ptr noundef nonnull align 8 dereferenceable(26) %send_value_)
  %has_send_value_ = getelementptr inbounds i8, ptr %this, i64 48
  store i8 0, ptr %has_send_value_, align 8
  %receive_value_ = getelementptr inbounds i8, ptr %this, i64 56
  invoke void @_ZN3net10IPEndPointC1Ev(ptr noundef nonnull align 8 dereferenceable(26) %receive_value_)
          to label %invoke.cont3 unwind label %lpad2

invoke.cont3:                                     ; preds = %entry
  %has_receive_value_ = getelementptr inbounds i8, ptr %this, i64 88
  store i8 0, ptr %has_receive_value_, align 8
  ret void

lpad2:                                            ; preds = %entry
  %0 = landingpad { ptr, i32 }
          cleanup
  tail call void @_ZN3net10IPEndPointD1Ev(ptr noundef nonnull align 8 dereferenceable(26) %send_value_) #17
  resume { ptr, i32 } %0
}